target datalayout = "e-m:e-p270:32:32-p271:32:32-p272:64:64-i64:64-i128:128-f80:128-n8:16:32:64-S128"
target triple = "x86_64-pc-linux-gnu"

%struct.luaL_Buffer = type { ptr, i64, i64, ptr, %union.anon }
%union.anon = type { double, [1016 x i8] }

@.str.21 = private unnamed_addr constant [2 x i8] c"?\00", align 1
@.str.22 = private unnamed_addr constant [2 x i8] c";\00", align 1
@.str.23 = private unnamed_addr constant [2 x i8] c"r\00", align 1
@.str.24 = private unnamed_addr constant [10 x i8] c"no file '\00", align 1
@.str.25 = private unnamed_addr constant [13 x i8] c"'\0A\09no file '\00", align 1
@.str.26 = private unnamed_addr constant [2 x i8] c"'\00", align 1

; Function Attrs: nounwind uwtable
define internal void @pusherrornotfound(ptr noundef %0, ptr noundef %1) #0 {
  %3 = alloca ptr, align 8
  %4 = alloca ptr, align 8
  %5 = alloca %struct.luaL_Buffer, align 8
  store ptr %0, ptr %3, align 8, !tbaa !4
  store ptr %1, ptr %4, align 8, !tbaa !12
  call void @llvm.lifetime.start.p0(i64 1056, ptr %5) #6
  %6 = load ptr, ptr %3, align 8, !tbaa !4
  call void @luaL_buffinit(ptr noundef %6, ptr noundef %5)
  call void @luaL_addstring(ptr noundef %5, ptr noundef @.str.24)
  %7 = load ptr, ptr %4, align 8, !tbaa !12
  call void @luaL_addgsub(ptr noundef %5, ptr noundef %7, ptr noundef @.str.22, ptr noundef @.str.25)
  call void @luaL_addstring(ptr noundef %5, ptr noundef @.str.26)
  call void @luaL_pushresult(ptr noundef %5)
  call void @llvm.lifetime.end.p0(i64 1056, ptr %5) #6
  ret void
}

; Function Attrs: nounwind uwtable
define internal i32 @readable(ptr noundef %0) #0 {
  %2 = alloca i32, align 4
  %3 = alloca ptr, align 8
  %4 = alloca ptr, align 8
  %5 = alloca i32, align 4
  store ptr %0, ptr %3, align 8, !tbaa !12
  call void @llvm.lifetime.start.p0(i64 8, ptr %4) #6
  %6 = load ptr, ptr %3, align 8, !tbaa !12
  %7 = call noalias ptr @fopen64(ptr noundef %6, ptr noundef @.str.23)
  store ptr %7, ptr %4, align 8, !tbaa !25
  %8 = load ptr, ptr %4, align 8, !tbaa !25
  %9 = icmp eq ptr %8, null
  br i1 %9, label %10, label %11

10:                                               ; preds = %1
  store i32 0, ptr %2, align 4
  store i32 1, ptr %5, align 4
  br label %14

11:                                               ; preds = %1
  %12 = load ptr, ptr %4, align 8, !tbaa !25
  %13 = call i32 @fclose(ptr noundef %12)
  store i32 1, ptr %2, align 4
  store i32 1, ptr %5, align 4
  br label %14

14:                                               ; preds = %11, %10
  call void @llvm.lifetime.end.p0(i64 8, ptr %4) #6
  %15 = load i32, ptr %2, align 4
  ret i32 %15
}

; Function Attrs: nounwind uwtable
define internal ptr @getnextfilename(ptr noundef %0, ptr noundef %1) #0 {
  %3 = alloca ptr, align 8
  %4 = alloca ptr, align 8
  %5 = alloca ptr, align 8
  %6 = alloca ptr, align 8
  %7 = alloca ptr, align 8
  %8 = alloca i32, align 4
  store ptr %0, ptr %4, align 8, !tbaa !23
  store ptr %1, ptr %5, align 8, !tbaa !12
  call void @llvm.lifetime.start.p0(i64 8, ptr %6) #6
  call void @llvm.lifetime.start.p0(i64 8, ptr %7) #6
  %9 = load ptr, ptr %4, align 8, !tbaa !23
  %10 = load ptr, ptr %9, align 8, !tbaa !12
  store ptr %10, ptr %7, align 8, !tbaa !12
  %11 = load ptr, ptr %7, align 8, !tbaa !12
  %12 = load ptr, ptr %5, align 8, !tbaa !12
  %13 = icmp eq ptr %11, %12
  br i1 %13, label %14, label %15

14:                                               ; preds = %2
  store ptr null, ptr %3, align 8
  store i32 1, ptr %8, align 4
  br label %40

15:                                               ; preds = %2
  %16 = load ptr, ptr %7, align 8, !tbaa !12
  %17 = load i8, ptr %16, align 1, !tbaa !19
  %18 = sext i8 %17 to i32
  %19 = icmp eq i32 %18, 0
  br i1 %19, label %20, label %25

20:                                               ; preds = %15
  %21 = load i8, ptr @.str.22, align 1, !tbaa !19
  %22 = load ptr, ptr %7, align 8, !tbaa !12
  store i8 %21, ptr %22, align 1, !tbaa !19
  %23 = load ptr, ptr %7, align 8, !tbaa !12
  %24 = getelementptr inbounds nuw i8, ptr %23, i32 1
  store ptr %24, ptr %7, align 8, !tbaa !12
  br label %25

25:                                               ; preds = %20, %15
  br label %26

26:                                               ; preds = %25
  %27 = load ptr, ptr %7, align 8, !tbaa !12
  %28 = load i8, ptr @.str.22, align 1, !tbaa !19
  %29 = sext i8 %28 to i32
  %30 = call ptr @strchr(ptr noundef %27, i32 noundef %29) #7
  store ptr %30, ptr %6, align 8, !tbaa !12
  %31 = load ptr, ptr %6, align 8, !tbaa !12
  %32 = icmp eq ptr %31, null
  br i1 %32, label %33, label %35

33:                                               ; preds = %26
  %34 = load ptr, ptr %5, align 8, !tbaa !12
  store ptr %34, ptr %6, align 8, !tbaa !12
  br label %35

35:                                               ; preds = %33, %26
  %36 = load ptr, ptr %6, align 8, !tbaa !12
  store i8 0, ptr %36, align 1, !tbaa !19
  %37 = load ptr, ptr %6, align 8, !tbaa !12
  %38 = load ptr, ptr %4, align 8, !tbaa !23
  store ptr %37, ptr %38, align 8, !tbaa !12
  %39 = load ptr, ptr %7, align 8, !tbaa !12
  store ptr %39, ptr %3, align 8
  store i32 1, ptr %8, align 4
  br label %40

40:                                               ; preds = %35, %14
  call void @llvm.lifetime.end.p0(i64 8, ptr %7) #6
  call void @llvm.lifetime.end.p0(i64 8, ptr %6) #6
  %41 = load ptr, ptr %3, align 8
  ret ptr %41
}

; Function Attrs: nounwind uwtable
define internal ptr @searchpath(ptr noundef %0, ptr noundef %1, ptr noundef %2, ptr noundef %3, ptr noundef %4) #0 {
  %6 = alloca ptr, align 8
  %7 = alloca ptr, align 8
  %8 = alloca ptr, align 8
  %9 = alloca ptr, align 8
  %10 = alloca ptr, align 8
  %11 = alloca ptr, align 8
  %12 = alloca %struct.luaL_Buffer, align 8
  %13 = alloca ptr, align 8
  %14 = alloca ptr, align 8
  %15 = alloca ptr, align 8
  %16 = alloca i32, align 4
  store ptr %0, ptr %7, align 8, !tbaa !4
  store ptr %1, ptr %8, align 8, !tbaa !12
  store ptr %2, ptr %9, align 8, !tbaa !12
  store ptr %3, ptr %10, align 8, !tbaa !12
  store ptr %4, ptr %11, align 8, !tbaa !12
  call void @llvm.lifetime.start.p0(i64 1056, ptr %12) #6
  call void @llvm.lifetime.start.p0(i64 8, ptr %13) #6
  call void @llvm.lifetime.start.p0(i64 8, ptr %14) #6
  call void @llvm.lifetime.start.p0(i64 8, ptr %15) #6
  %17 = load ptr, ptr %10, align 8, !tbaa !12
  %18 = load i8, ptr %17, align 1, !tbaa !19
  %19 = sext i8 %18 to i32
  %20 = icmp ne i32 %19, 0
  br i1 %20, label %21, label %34

21:                                               ; preds = %5
  %22 = load ptr, ptr %8, align 8, !tbaa !12
  %23 = load ptr, ptr %10, align 8, !tbaa !12
  %24 = load i8, ptr %23, align 1, !tbaa !19
  %25 = sext i8 %24 to i32
  %26 = call ptr @strchr(ptr noundef %22, i32 noundef %25) #7
  %27 = icmp ne ptr %26, null
  br i1 %27, label %28, label %34

28:                                               ; preds = %21
  %29 = load ptr, ptr %7, align 8, !tbaa !4
  %30 = load ptr, ptr %8, align 8, !tbaa !12
  %31 = load ptr, ptr %10, align 8, !tbaa !12
  %32 = load ptr, ptr %11, align 8, !tbaa !12
  %33 = call ptr @luaL_gsub(ptr noundef %29, ptr noundef %30, ptr noundef %31, ptr noundef %32)
  store ptr %33, ptr %8, align 8, !tbaa !12
  br label %34

34:                                               ; preds = %28, %21, %5
  %35 = load ptr, ptr %7, align 8, !tbaa !4
  call void @luaL_buffinit(ptr noundef %35, ptr noundef %12)
  %36 = load ptr, ptr %9, align 8, !tbaa !12
  %37 = load ptr, ptr %8, align 8, !tbaa !12
  call void @luaL_addgsub(ptr noundef %12, ptr noundef %36, ptr noundef @.str.21, ptr noundef %37)
  %38 = getelementptr inbounds nuw %struct.luaL_Buffer, ptr %12, i32 0, i32 2
  %39 = load i64, ptr %38, align 8, !tbaa !16
  %40 = getelementptr inbounds nuw %struct.luaL_Buffer, ptr %12, i32 0, i32 1
  %41 = load i64, ptr %40, align 8, !tbaa !18
  %42 = icmp ult i64 %39, %41
  br i1 %42, label %45, label %43

43:                                               ; preds = %34
  %44 = call ptr @luaL_prepbuffsize(ptr noundef %12, i64 noundef 1)
  br label %45

45:                                               ; preds = %43, %34
  %46 = getelementptr inbounds nuw %struct.luaL_Buffer, ptr %12, i32 0, i32 0
  %47 = load ptr, ptr %46, align 8, !tbaa !20
  %48 = getelementptr inbounds nuw %struct.luaL_Buffer, ptr %12, i32 0, i32 2
  %49 = load i64, ptr %48, align 8, !tbaa !16
  %50 = add i64 %49, 1
  store i64 %50, ptr %48, align 8, !tbaa !16
  %51 = getelementptr inbounds nuw i8, ptr %47, i64 %49
  store i8 0, ptr %51, align 1, !tbaa !19
  %52 = getelementptr inbounds nuw %struct.luaL_Buffer, ptr %12, i32 0, i32 0
  %53 = load ptr, ptr %52, align 8, !tbaa !20
  store ptr %53, ptr %13, align 8, !tbaa !12
  %54 = load ptr, ptr %13, align 8, !tbaa !12
  %55 = getelementptr inbounds nuw %struct.luaL_Buffer, ptr %12, i32 0, i32 2
  %56 = load i64, ptr %55, align 8, !tbaa !16
  %57 = getelementptr inbounds nuw i8, ptr %54, i64 %56
  %58 = getelementptr inbounds i8, ptr %57, i64 -1
  store ptr %58, ptr %14, align 8, !tbaa !12
  br label %59

59:                                               ; preds = %71, %45
  %60 = load ptr, ptr %14, align 8, !tbaa !12
  %61 = call ptr @getnextfilename(ptr noundef %13, ptr noundef %60)
  store ptr %61, ptr %15, align 8, !tbaa !12
  %62 = icmp ne ptr %61, null
  br i1 %62, label %63, label %72

63:                                               ; preds = %59
  %64 = load ptr, ptr %15, align 8, !tbaa !12
  %65 = call i32 @readable(ptr noundef %64)
  %66 = icmp ne i32 %65, 0
  br i1 %66, label %67, label %71

67:                                               ; preds = %63
  %68 = load ptr, ptr %7, align 8, !tbaa !4
  %69 = load ptr, ptr %15, align 8, !tbaa !12
  %70 = call ptr @lua_pushstring(ptr noundef %68, ptr noundef %69)
  store ptr %70, ptr %6, align 8
  store i32 1, ptr %16, align 4
  br label %76

71:                                               ; preds = %63
  br label %59

72:                                               ; preds = %59
  call void @luaL_pushresult(ptr noundef %12)
  %73 = load ptr, ptr %7, align 8, !tbaa !4
  %74 = load ptr, ptr %7, align 8, !tbaa !4
  %75 = call ptr @lua_tolstring(ptr noundef %74, i32 noundef -1, ptr noundef null)
  call void @pusherrornotfound(ptr noundef %73, ptr noundef %75)
  store ptr null, ptr %6, align 8
  store i32 1, ptr %16, align 4
  br label %76

76:                                               ; preds = %72, %67
  call void @llvm.lifetime.end.p0(i64 8, ptr %15) #6
  call void @llvm.lifetime.end.p0(i64 8, ptr %14) #6
  call void @llvm.lifetime.end.p0(i64 8, ptr %13) #6
  call void @llvm.lifetime.end.p0(i64 1056, ptr %12) #6
  %77 = load ptr, ptr %6, align 8
  ret ptr %77
}