; Function Attrs: nounwind uwtable
define internal fastcc ptr @searchpath(ptr noundef %0, ptr noundef %1, ptr noundef %2, ptr noundef %3, ptr noundef %4) unnamed_addr #0 {
  %6 = alloca %struct.luaL_Buffer, align 8
  %7 = alloca %struct.luaL_Buffer, align 8
  call void @llvm.lifetime.start.p0(i64 1056, ptr nonnull %7) #7
  %8 = load i8, ptr %3, align 1, !tbaa !15
  %.not = icmp eq i8 %8, 0
  br i1 %.not, label %14, label %9

9:                                                ; preds = %5
  %10 = sext i8 %8 to i32
  %11 = tail call ptr @strchr(ptr noundef nonnull dereferenceable(1) %1, i32 noundef %10) #8
  %.not20 = icmp eq ptr %11, null
  br i1 %.not20, label %14, label %12

12:                                               ; preds = %9
  %13 = tail call ptr @luaL_gsub(ptr noundef %0, ptr noundef nonnull %1, ptr noundef nonnull %3, ptr noundef %4) #7
  br label %14

14:                                               ; preds = %12, %9, %5
  %.017 = phi ptr [ %13, %12 ], [ %1, %9 ], [ %1, %5 ]
  call void @luaL_buffinit(ptr noundef %0, ptr noundef nonnull %7) #7
  call void @luaL_addgsub(ptr noundef nonnull %7, ptr noundef %2, ptr noundef nonnull @.str.21, ptr noundef %.017) #7
  %15 = getelementptr inbounds nuw i8, ptr %7, i64 16
  %16 = load i64, ptr %15, align 8, !tbaa !8
  %17 = getelementptr inbounds nuw i8, ptr %7, i64 8
  %18 = load i64, ptr %17, align 8, !tbaa !13
  %19 = icmp ult i64 %16, %18
  br i1 %19, label %22, label %20

20:                                               ; preds = %14
  %21 = call ptr @luaL_prepbuffsize(ptr noundef nonnull %7, i64 noundef 1) #7
  %.pre = load i64, ptr %15, align 8, !tbaa !8
  br label %22

22:                                               ; preds = %20, %14
  %23 = phi i64 [ %.pre, %20 ], [ %16, %14 ]
  %24 = load ptr, ptr %7, align 8, !tbaa !14
  %25 = add i64 %23, 1
  store i64 %25, ptr %15, align 8, !tbaa !8
  %26 = getelementptr inbounds nuw i8, ptr %24, i64 %23
  store i8 0, ptr %26, align 1, !tbaa !15
  %27 = load ptr, ptr %7, align 8, !tbaa !14
  %28 = load i64, ptr %15, align 8, !tbaa !8
  %29 = getelementptr inbounds nuw i8, ptr %27, i64 %28
  %30 = getelementptr inbounds i8, ptr %29, i64 -1
  br label %readable.exit

readable.exit:                                    ; preds = %37, %22
  %.024 = phi ptr [ %27, %22 ], [ %spec.select.i, %37 ]
  %31 = icmp eq ptr %.024, %30
  br i1 %31, label %45, label %32

32:                                               ; preds = %readable.exit
  %33 = load i8, ptr %.024, align 1, !tbaa !15
  %34 = icmp eq i8 %33, 0
  br i1 %34, label %35, label %37

35:                                               ; preds = %32
  store i8 59, ptr %.024, align 1, !tbaa !15
  %36 = getelementptr inbounds nuw i8, ptr %.024, i64 1
  br label %37

37:                                               ; preds = %35, %32
  %.0.i = phi ptr [ %36, %35 ], [ %.024, %32 ]
  %38 = call ptr @strchr(ptr noundef nonnull dereferenceable(1) %.0.i, i32 noundef 59) #8
  %39 = icmp eq ptr %38, null
  %spec.select.i = select i1 %39, ptr %30, ptr %38
  store i8 0, ptr %spec.select.i, align 1, !tbaa !15
  %40 = call noalias ptr @fopen64(ptr noundef nonnull readonly %.0.i, ptr noundef nonnull @.str.23)
  %41 = icmp eq ptr %40, null
  br i1 %41, label %readable.exit, label %42

42:                                               ; preds = %37
  %43 = call i32 @fclose(ptr noundef nonnull %40)
  %44 = call ptr @lua_pushstring(ptr noundef %0, ptr noundef nonnull %.0.i) #7
  br label %47

45:                                               ; preds = %readable.exit
  call void @luaL_pushresult(ptr noundef nonnull %7) #7
  %46 = call ptr @lua_tolstring(ptr noundef %0, i32 noundef -1, ptr noundef null) #7
  call void @llvm.lifetime.start.p0(i64 1056, ptr nonnull %6) #7
  call void @luaL_buffinit(ptr noundef %0, ptr noundef nonnull %6) #7
  call void @luaL_addstring(ptr noundef nonnull %6, ptr noundef nonnull @.str.24) #7
  call void @luaL_addgsub(ptr noundef nonnull %6, ptr noundef %46, ptr noundef nonnull @.str.22, ptr noundef nonnull @.str.25) #7
  call void @luaL_addstring(ptr noundef nonnull %6, ptr noundef nonnull @.str.26) #7
  call void @luaL_pushresult(ptr noundef nonnull %6) #7
  call void @llvm.lifetime.end.p0(i64 1056, ptr nonnull %6) #7
  br label %47

47:                                               ; preds = %45, %42
  %.0 = phi ptr [ %44, %42 ], [ null, %45 ]
  call void @llvm.lifetime.end.p0(i64 1056, ptr nonnull %7) #7
  ret ptr %.0
}